; Function Attrs: mustprogress uwtable
define void @_ZN3gmx26SelectionFileOptionStorage10processSetEv(ptr noundef nonnull readonly align 8 captures(none) dereferenceable(129) %0) unnamed_addr #1 align 2 personality ptr @__gxx_personality_v0 {
  %2 = alloca %"class.gmx::InvalidInputError", align 8
  %3 = alloca %"class.gmx::ExceptionInitializer", align 8
  %4 = alloca %"class.gmx::ExceptionInfo", align 8
  %5 = getelementptr inbounds nuw i8, ptr %0, i64 128
  %6 = load i8, ptr %5, align 8, !tbaa !116, !range !119, !noundef !120
  %7 = trunc nuw i8 %6 to i1
  br i1 %7, label %19, label %8

8:                                                ; preds = %1
  %9 = tail call ptr @__cxa_allocate_exception(i64 24) #28
  call void @llvm.lifetime.start.p0(i64 56, ptr nonnull %3) #28
  invoke void @_ZN3gmx20ExceptionInitializerC2EPKc(ptr noundef nonnull align 8 dereferenceable(56) %3, ptr noundef nonnull @.str.33)
          to label %10 unwind label %.thread

10:                                               ; preds = %8
  invoke void @_ZN3gmx16GromacsExceptionC2ERKNS_20ExceptionInitializerE(ptr noundef nonnull align 8 dereferenceable(24) %2, ptr noundef nonnull align 8 dereferenceable(56) %3)
          to label %11 unwind label %.thread13

11:                                               ; preds = %10
  store ptr getelementptr inbounds nuw inrange(-16, 32) (i8, ptr @_ZTVN3gmx17InvalidInputErrorE, i64 16), ptr %2, align 8, !tbaa !12
  call void @llvm.lifetime.start.p0(i64 32, ptr nonnull %4) #28
  store ptr getelementptr inbounds nuw inrange(-16, 16) (i8, ptr @_ZTVN3gmx13ExceptionInfoINS_22ExceptionInfoLocation_ENS_13ThrowLocationEEE, i64 16), ptr %4, align 8, !tbaa !12
  %12 = getelementptr inbounds nuw i8, ptr %4, i64 8
  store ptr @__PRETTY_FUNCTION__._ZN3gmx26SelectionFileOptionStorage10processSetEv, ptr %12, align 8, !tbaa !58
  %.sroa.4.0..sroa_idx = getelementptr inbounds nuw i8, ptr %4, i64 16
  store ptr @.str.14, ptr %.sroa.4.0..sroa_idx, align 8, !tbaa !58
  %.sroa.5.0..sroa_idx = getelementptr inbounds nuw i8, ptr %4, i64 24
  store i32 306, ptr %.sroa.5.0..sroa_idx, align 8, !tbaa !59
  invoke void @_ZN3gmxlsINS_17InvalidInputErrorENS_22ExceptionInfoLocation_ENS_13ThrowLocationEEENSt9enable_ifIXsr3stdE12is_base_of_vINS_16GromacsExceptionET_EES6_E4typeES6_RKNS_13ExceptionInfoIT0_T1_EE(ptr dead_on_unwind writable sret(%"class.gmx::InvalidInputError") align 8 %9, ptr noundef nonnull %2, ptr noundef nonnull align 8 dereferenceable(32) %4)
          to label %13 unwind label %16

13:                                               ; preds = %11
  invoke void @__cxa_throw(ptr %9, ptr nonnull @_ZTIN3gmx17InvalidInputErrorE, ptr nonnull @_ZN3gmx16GromacsExceptionD2Ev) #29
          to label %21 unwind label %16

.thread:                                          ; preds = %8
  %14 = landingpad { ptr, i32 }
          cleanup
  br label %.sink.split

.thread13:                                        ; preds = %10
  %15 = landingpad { ptr, i32 }
          cleanup
  call void @_ZN3gmx20ExceptionInitializerD2Ev(ptr noundef nonnull align 8 dereferenceable(56) %3) #28
  br label %.sink.split

16:                                               ; preds = %11, %13
  %.0 = phi i1 [ false, %13 ], [ true, %11 ]
  %17 = landingpad { ptr, i32 }
          cleanup
  call void @_ZN3gmx8internal14IExceptionInfoD2Ev(ptr noundef nonnull align 8 dereferenceable(32) %4) #28
  call void @llvm.lifetime.end.p0(i64 32, ptr nonnull %4) #28
  call void @_ZN3gmx16GromacsExceptionD2Ev(ptr noundef nonnull align 8 dereferenceable(24) %2) #28
  call void @_ZN3gmx20ExceptionInitializerD2Ev(ptr noundef nonnull align 8 dereferenceable(56) %3) #28
  call void @llvm.lifetime.end.p0(i64 56, ptr nonnull %3) #28
  br i1 %.0, label %18, label %20

.sink.split:                                      ; preds = %.thread, %.thread13
  %.pn.pn12.ph = phi { ptr, i32 } [ %15, %.thread13 ], [ %14, %.thread ]
  call void @llvm.lifetime.end.p0(i64 56, ptr nonnull %3) #28
  br label %18

18:                                               ; preds = %.sink.split, %16
  %.pn.pn12 = phi { ptr, i32 } [ %17, %16 ], [ %.pn.pn12.ph, %.sink.split ]
  call void @__cxa_free_exception(ptr %9) #28
  br label %20

19:                                               ; preds = %1
  ret void

20:                                               ; preds = %16, %18
  %.pn.pn11 = phi { ptr, i32 } [ %17, %16 ], [ %.pn.pn12, %18 ]
  resume { ptr, i32 } %.pn.pn11

21:                                               ; preds = %13
  unreachable
}